; Function Attrs: mustprogress uwtable
define internal fastcc void @_ZN5YosysL17restore_macro_argERNS_12define_map_tERSt5stackISt4pairINSt7__cxx1112basic_stringIcSt11char_traitsIcESaIcEEENS_13define_body_tEESt5dequeISB_SaISB_EEE(ptr noundef nonnull align 8 dereferenceable(48) %0, ptr noundef nonnull align 8 dereferenceable(80) %1) unnamed_addr #4 personality ptr @__gxx_personality_v0 {
  %3 = getelementptr inbounds nuw i8, ptr %1, i64 48
  %4 = load ptr, ptr %3, align 8, !tbaa !180, !noalias !181
  %5 = getelementptr inbounds nuw i8, ptr %1, i64 56
  %6 = load ptr, ptr %5, align 8, !tbaa !184, !noalias !181
  %7 = icmp eq ptr %4, %6
  br i1 %7, label %8, label %_ZNSt5stackISt4pairINSt7__cxx1112basic_stringIcSt11char_traitsIcESaIcEEEN5Yosys13define_body_tEESt5dequeIS9_SaIS9_EEE3topEv.exit

8:                                                ; preds = %2
  %9 = getelementptr inbounds nuw i8, ptr %1, i64 72
  %10 = load ptr, ptr %9, align 8, !tbaa !185, !noalias !181
  %11 = getelementptr inbounds i8, ptr %10, i64 -8
  %12 = load ptr, ptr %11, align 8, !tbaa !186
  %13 = getelementptr inbounds nuw i8, ptr %12, i64 432
  br label %_ZNSt5stackISt4pairINSt7__cxx1112basic_stringIcSt11char_traitsIcESaIcEEEN5Yosys13define_body_tEESt5dequeIS9_SaIS9_EEE3topEv.exit

_ZNSt5stackISt4pairINSt7__cxx1112basic_stringIcSt11char_traitsIcESaIcEEEN5Yosys13define_body_tEESt5dequeIS9_SaIS9_EEE3topEv.exit: ; preds = %2, %8
  %14 = phi ptr [ %13, %8 ], [ %4, %2 ]
  %15 = getelementptr inbounds i8, ptr %14, i64 -144
  %16 = getelementptr inbounds i8, ptr %14, i64 -112
  tail call void @_ZN5Yosys12define_map_t3addERKNSt7__cxx1112basic_stringIcSt11char_traitsIcESaIcEEERKNS_13define_body_tE(ptr noundef nonnull align 8 dereferenceable(48) %0, ptr noundef nonnull align 8 dereferenceable(32) %15, ptr noundef nonnull align 8 dereferenceable(112) %16)
  tail call void @_ZNSt5dequeISt4pairINSt7__cxx1112basic_stringIcSt11char_traitsIcESaIcEEEN5Yosys13define_body_tEESaIS9_EE8pop_backEv(ptr noundef nonnull align 8 dereferenceable(80) %1) #27
  ret void
}